target datalayout = "e-m:e-p270:32:32-p271:32:32-p272:64:64-i64:64-i128:128-f80:128-n8:16:32:64-S128"
target triple = "x86_64-pc-linux-gnu"

%struct.AVFilterContext = type { ptr, ptr, ptr, ptr, ptr, i32, ptr, ptr, i32, ptr, ptr, i32, i32, ptr, ptr, ptr, ptr, i32, ptr, i32, i32 }
%struct.DejudderContext = type { ptr, ptr, i32, i32, i32, i32, i64, i32, i32 }
%struct.AVFilterLink = type { ptr, ptr, ptr, ptr, i32, i32, i32, i32, %struct.AVRational, i32, i32, i32, %struct.AVChannelLayout, %struct.AVRational, ptr, i32, %struct.AVFilterFormatsConfig, %struct.AVFilterFormatsConfig }
%struct.AVChannelLayout = type { i32, i32, %union.anon.1, ptr }
%union.anon.1 = type { i64 }
%struct.AVRational = type { i32, i32 }
%struct.AVFilterFormatsConfig = type { ptr, ptr, ptr, ptr, ptr }
%struct.AVFrame = type { [8 x ptr], [8 x i32], ptr, i32, i32, i32, i32, i32, %struct.AVRational, i64, i64, %struct.AVRational, i32, ptr, i32, i32, [8 x ptr], ptr, i32, ptr, i32, i32, i32, i32, i32, i32, i32, i64, ptr, i32, ptr, ptr, i64, i64, i64, i64, ptr, %struct.AVChannelLayout, i64 }

@.str.3 = private unnamed_addr constant [5 x i8] c"%ld\09\00", align 1
@.str.4 = private unnamed_addr constant [19 x i8] c"next=%ld, new=%ld\0A\00", align 1

; Function Attrs: nounwind uwtable
define internal i32 @filter_frame(ptr noundef %0, ptr noundef %1) #1 {
  %3 = alloca i32, align 4
  %4 = alloca ptr, align 8
  %5 = alloca ptr, align 8
  %6 = alloca i32, align 4
  %7 = alloca ptr, align 8
  %8 = alloca ptr, align 8
  %9 = alloca ptr, align 8
  %10 = alloca ptr, align 8
  %11 = alloca i64, align 8
  %12 = alloca i64, align 8
  %13 = alloca i32, align 4
  store ptr %0, ptr %4, align 8, !tbaa !35
  store ptr %1, ptr %5, align 8, !tbaa !37
  call void @llvm.lifetime.start.p0(i64 4, ptr %6) #7
  call void @llvm.lifetime.start.p0(i64 8, ptr %7) #7
  %14 = load ptr, ptr %4, align 8, !tbaa !35
  %15 = getelementptr inbounds nuw %struct.AVFilterLink, ptr %14, i32 0, i32 2
  %16 = load ptr, ptr %15, align 8, !tbaa !39
  store ptr %16, ptr %7, align 8, !tbaa !4
  call void @llvm.lifetime.start.p0(i64 8, ptr %8) #7
  %17 = load ptr, ptr %7, align 8, !tbaa !4
  %18 = getelementptr inbounds nuw %struct.AVFilterContext, ptr %17, i32 0, i32 7
  %19 = load ptr, ptr %18, align 8, !tbaa !47
  %20 = getelementptr inbounds ptr, ptr %19, i64 0
  %21 = load ptr, ptr %20, align 8, !tbaa !35
  store ptr %21, ptr %8, align 8, !tbaa !35
  call void @llvm.lifetime.start.p0(i64 8, ptr %9) #7
  %22 = load ptr, ptr %7, align 8, !tbaa !4
  %23 = getelementptr inbounds nuw %struct.AVFilterContext, ptr %22, i32 0, i32 9
  %24 = load ptr, ptr %23, align 8, !tbaa !9
  store ptr %24, ptr %9, align 8, !tbaa !22
  call void @llvm.lifetime.start.p0(i64 8, ptr %10) #7
  %25 = load ptr, ptr %9, align 8, !tbaa !22
  %26 = getelementptr inbounds nuw %struct.DejudderContext, ptr %25, i32 0, i32 1
  %27 = load ptr, ptr %26, align 8, !tbaa !28
  store ptr %27, ptr %10, align 8, !tbaa !48
  call void @llvm.lifetime.start.p0(i64 8, ptr %11) #7
  %28 = load ptr, ptr %5, align 8, !tbaa !37
  %29 = getelementptr inbounds nuw %struct.AVFrame, ptr %28, i32 0, i32 9
  %30 = load i64, ptr %29, align 8, !tbaa !49
  store i64 %30, ptr %11, align 8, !tbaa !54
  call void @llvm.lifetime.start.p0(i64 8, ptr %12) #7
  %31 = load i64, ptr %11, align 8, !tbaa !54
  %32 = icmp eq i64 %31, -9223372036854775808
  br i1 %32, label %33, label %37

33:                                               ; preds = %2
  %34 = load ptr, ptr %8, align 8, !tbaa !35
  %35 = load ptr, ptr %5, align 8, !tbaa !37
  %36 = call i32 @ff_filter_frame(ptr noundef %34, ptr noundef %35)
  store i32 %36, ptr %3, align 4
  store i32 1, ptr %13, align 4
  br label %218

37:                                               ; preds = %2
  %38 = load ptr, ptr %9, align 8, !tbaa !22
  %39 = getelementptr inbounds nuw %struct.DejudderContext, ptr %38, i32 0, i32 7
  %40 = load i32, ptr %39, align 8, !tbaa !34
  %41 = icmp ne i32 %40, 0
  br i1 %41, label %42, label %56

42:                                               ; preds = %37
  %43 = load ptr, ptr %9, align 8, !tbaa !22
  %44 = getelementptr inbounds nuw %struct.DejudderContext, ptr %43, i32 0, i32 7
  %45 = load i32, ptr %44, align 8, !tbaa !34
  %46 = add nsw i32 %45, -1
  store i32 %46, ptr %44, align 8, !tbaa !34
  %47 = load i64, ptr %11, align 8, !tbaa !54
  %48 = mul nsw i64 %47, 2
  %49 = load ptr, ptr %9, align 8, !tbaa !22
  %50 = getelementptr inbounds nuw %struct.DejudderContext, ptr %49, i32 0, i32 8
  %51 = load i32, ptr %50, align 4, !tbaa !24
  %52 = sext i32 %51 to i64
  %53 = mul nsw i64 %48, %52
  %54 = load ptr, ptr %9, align 8, !tbaa !22
  %55 = getelementptr inbounds nuw %struct.DejudderContext, ptr %54, i32 0, i32 6
  store i64 %53, ptr %55, align 8, !tbaa !29
  br label %153

56:                                               ; preds = %37
  %57 = load i64, ptr %11, align 8, !tbaa !54
  %58 = load ptr, ptr %10, align 8, !tbaa !48
  %59 = load ptr, ptr %9, align 8, !tbaa !22
  %60 = getelementptr inbounds nuw %struct.DejudderContext, ptr %59, i32 0, i32 3
  %61 = load i32, ptr %60, align 4, !tbaa !31
  %62 = sext i32 %61 to i64
  %63 = getelementptr inbounds i64, ptr %58, i64 %62
  %64 = load i64, ptr %63, align 8, !tbaa !54
  %65 = icmp slt i64 %57, %64
  br i1 %65, label %66, label %111

66:                                               ; preds = %56
  %67 = load i64, ptr %11, align 8, !tbaa !54
  %68 = load ptr, ptr %10, align 8, !tbaa !48
  %69 = load ptr, ptr %9, align 8, !tbaa !22
  %70 = getelementptr inbounds nuw %struct.DejudderContext, ptr %69, i32 0, i32 4
  %71 = load i32, ptr %70, align 8, !tbaa !32
  %72 = sext i32 %71 to i64
  %73 = getelementptr inbounds i64, ptr %68, i64 %72
  %74 = load i64, ptr %73, align 8, !tbaa !54
  %75 = add nsw i64 %67, %74
  %76 = load ptr, ptr %10, align 8, !tbaa !48
  %77 = load ptr, ptr %9, align 8, !tbaa !22
  %78 = getelementptr inbounds nuw %struct.DejudderContext, ptr %77, i32 0, i32 5
  %79 = load i32, ptr %78, align 4, !tbaa !33
  %80 = sext i32 %79 to i64
  %81 = getelementptr inbounds i64, ptr %76, i64 %80
  %82 = load i64, ptr %81, align 8, !tbaa !54
  %83 = sub nsw i64 %75, %82
  %84 = load ptr, ptr %10, align 8, !tbaa !48
  %85 = load ptr, ptr %9, align 8, !tbaa !22
  %86 = getelementptr inbounds nuw %struct.DejudderContext, ptr %85, i32 0, i32 2
  %87 = load i32, ptr %86, align 8, !tbaa !30
  %88 = sext i32 %87 to i64
  %89 = getelementptr inbounds i64, ptr %84, i64 %88
  %90 = load i64, ptr %89, align 8, !tbaa !54
  %91 = sub nsw i64 %83, %90
  store i64 %91, ptr %12, align 8, !tbaa !54
  store i32 0, ptr %6, align 4, !tbaa !55
  br label %92

92:                                               ; preds = %107, %66
  %93 = load i32, ptr %6, align 4, !tbaa !55
  %94 = load ptr, ptr %9, align 8, !tbaa !22
  %95 = getelementptr inbounds nuw %struct.DejudderContext, ptr %94, i32 0, i32 8
  %96 = load i32, ptr %95, align 4, !tbaa !24
  %97 = add nsw i32 %96, 2
  %98 = icmp slt i32 %93, %97
  br i1 %98, label %99, label %110

99:                                               ; preds = %92
  %100 = load i64, ptr %12, align 8, !tbaa !54
  %101 = load ptr, ptr %10, align 8, !tbaa !48
  %102 = load i32, ptr %6, align 4, !tbaa !55
  %103 = sext i32 %102 to i64
  %104 = getelementptr inbounds i64, ptr %101, i64 %103
  %105 = load i64, ptr %104, align 8, !tbaa !54
  %106 = add nsw i64 %105, %100
  store i64 %106, ptr %104, align 8, !tbaa !54
  br label %107

107:                                              ; preds = %99
  %108 = load i32, ptr %6, align 4, !tbaa !55
  %109 = add nsw i32 %108, 1
  store i32 %109, ptr %6, align 4, !tbaa !55
  br label %92, !llvm.loop !56

110:                                              ; preds = %92
  br label %111

111:                                              ; preds = %110, %56
  %112 = load ptr, ptr %9, align 8, !tbaa !22
  %113 = getelementptr inbounds nuw %struct.DejudderContext, ptr %112, i32 0, i32 8
  %114 = load i32, ptr %113, align 4, !tbaa !24
  %115 = sub nsw i32 %114, 1
  %116 = sext i32 %115 to i64
  %117 = load ptr, ptr %10, align 8, !tbaa !48
  %118 = load ptr, ptr %9, align 8, !tbaa !22
  %119 = getelementptr inbounds nuw %struct.DejudderContext, ptr %118, i32 0, i32 4
  %120 = load i32, ptr %119, align 8, !tbaa !32
  %121 = sext i32 %120 to i64
  %122 = getelementptr inbounds i64, ptr %117, i64 %121
  %123 = load i64, ptr %122, align 8, !tbaa !54
  %124 = load ptr, ptr %10, align 8, !tbaa !48
  %125 = load ptr, ptr %9, align 8, !tbaa !22
  %126 = getelementptr inbounds nuw %struct.DejudderContext, ptr %125, i32 0, i32 2
  %127 = load i32, ptr %126, align 8, !tbaa !30
  %128 = sext i32 %127 to i64
  %129 = getelementptr inbounds i64, ptr %124, i64 %128
  %130 = load i64, ptr %129, align 8, !tbaa !54
  %131 = sub nsw i64 %123, %130
  %132 = mul nsw i64 %116, %131
  %133 = load ptr, ptr %9, align 8, !tbaa !22
  %134 = getelementptr inbounds nuw %struct.DejudderContext, ptr %133, i32 0, i32 8
  %135 = load i32, ptr %134, align 4, !tbaa !24
  %136 = add nsw i32 %135, 1
  %137 = sext i32 %136 to i64
  %138 = load i64, ptr %11, align 8, !tbaa !54
  %139 = load ptr, ptr %10, align 8, !tbaa !48
  %140 = load ptr, ptr %9, align 8, !tbaa !22
  %141 = getelementptr inbounds nuw %struct.DejudderContext, ptr %140, i32 0, i32 5
  %142 = load i32, ptr %141, align 4, !tbaa !33
  %143 = sext i32 %142 to i64
  %144 = getelementptr inbounds i64, ptr %139, i64 %143
  %145 = load i64, ptr %144, align 8, !tbaa !54
  %146 = sub nsw i64 %138, %145
  %147 = mul nsw i64 %137, %146
  %148 = add nsw i64 %132, %147
  %149 = load ptr, ptr %9, align 8, !tbaa !22
  %150 = getelementptr inbounds nuw %struct.DejudderContext, ptr %149, i32 0, i32 6
  %151 = load i64, ptr %150, align 8, !tbaa !29
  %152 = add nsw i64 %151, %148
  store i64 %152, ptr %150, align 8, !tbaa !29
  br label %153

153:                                              ; preds = %111, %42
  %154 = load i64, ptr %11, align 8, !tbaa !54
  %155 = load ptr, ptr %10, align 8, !tbaa !48
  %156 = load ptr, ptr %9, align 8, !tbaa !22
  %157 = getelementptr inbounds nuw %struct.DejudderContext, ptr %156, i32 0, i32 3
  %158 = load i32, ptr %157, align 4, !tbaa !31
  %159 = sext i32 %158 to i64
  %160 = getelementptr inbounds i64, ptr %155, i64 %159
  store i64 %154, ptr %160, align 8, !tbaa !54
  %161 = load ptr, ptr %9, align 8, !tbaa !22
  %162 = getelementptr inbounds nuw %struct.DejudderContext, ptr %161, i32 0, i32 3
  %163 = load i32, ptr %162, align 4, !tbaa !31
  %164 = load ptr, ptr %9, align 8, !tbaa !22
  %165 = getelementptr inbounds nuw %struct.DejudderContext, ptr %164, i32 0, i32 2
  store i32 %163, ptr %165, align 8, !tbaa !30
  %166 = load ptr, ptr %9, align 8, !tbaa !22
  %167 = getelementptr inbounds nuw %struct.DejudderContext, ptr %166, i32 0, i32 4
  %168 = load i32, ptr %167, align 8, !tbaa !32
  %169 = load ptr, ptr %9, align 8, !tbaa !22
  %170 = getelementptr inbounds nuw %struct.DejudderContext, ptr %169, i32 0, i32 3
  store i32 %168, ptr %170, align 4, !tbaa !31
  %171 = load ptr, ptr %9, align 8, !tbaa !22
  %172 = getelementptr inbounds nuw %struct.DejudderContext, ptr %171, i32 0, i32 5
  %173 = load i32, ptr %172, align 4, !tbaa !33
  %174 = load ptr, ptr %9, align 8, !tbaa !22
  %175 = getelementptr inbounds nuw %struct.DejudderContext, ptr %174, i32 0, i32 4
  store i32 %173, ptr %175, align 8, !tbaa !32
  %176 = load ptr, ptr %9, align 8, !tbaa !22
  %177 = getelementptr inbounds nuw %struct.DejudderContext, ptr %176, i32 0, i32 5
  %178 = load i32, ptr %177, align 4, !tbaa !33
  %179 = add nsw i32 %178, 1
  %180 = load ptr, ptr %9, align 8, !tbaa !22
  %181 = getelementptr inbounds nuw %struct.DejudderContext, ptr %180, i32 0, i32 8
  %182 = load i32, ptr %181, align 4, !tbaa !24
  %183 = add nsw i32 %182, 2
  %184 = srem i32 %179, %183
  %185 = load ptr, ptr %9, align 8, !tbaa !22
  %186 = getelementptr inbounds nuw %struct.DejudderContext, ptr %185, i32 0, i32 5
  store i32 %184, ptr %186, align 4, !tbaa !33
  %187 = load ptr, ptr %9, align 8, !tbaa !22
  %188 = getelementptr inbounds nuw %struct.DejudderContext, ptr %187, i32 0, i32 6
  %189 = load i64, ptr %188, align 8, !tbaa !29
  %190 = load ptr, ptr %5, align 8, !tbaa !37
  %191 = getelementptr inbounds nuw %struct.AVFrame, ptr %190, i32 0, i32 9
  store i64 %189, ptr %191, align 8, !tbaa !49
  store i32 0, ptr %6, align 4, !tbaa !55
  br label %192

192:                                              ; preds = %206, %153
  %193 = load i32, ptr %6, align 4, !tbaa !55
  %194 = load ptr, ptr %9, align 8, !tbaa !22
  %195 = getelementptr inbounds nuw %struct.DejudderContext, ptr %194, i32 0, i32 8
  %196 = load i32, ptr %195, align 4, !tbaa !24
  %197 = add nsw i32 %196, 2
  %198 = icmp slt i32 %193, %197
  br i1 %198, label %199, label %209

199:                                              ; preds = %192
  %200 = load ptr, ptr %7, align 8, !tbaa !4
  %201 = load ptr, ptr %10, align 8, !tbaa !48
  %202 = load i32, ptr %6, align 4, !tbaa !55
  %203 = sext i32 %202 to i64
  %204 = getelementptr inbounds i64, ptr %201, i64 %203
  %205 = load i64, ptr %204, align 8, !tbaa !54
  call void (ptr, i32, ptr, ...) @av_log(ptr noundef %200, i32 noundef 48, ptr noundef @.str.3, i64 noundef %205)
  br label %206

206:                                              ; preds = %199
  %207 = load i32, ptr %6, align 4, !tbaa !55
  %208 = add nsw i32 %207, 1
  store i32 %208, ptr %6, align 4, !tbaa !55
  br label %192, !llvm.loop !58

209:                                              ; preds = %192
  %210 = load ptr, ptr %7, align 8, !tbaa !4
  %211 = load i64, ptr %11, align 8, !tbaa !54
  %212 = load ptr, ptr %5, align 8, !tbaa !37
  %213 = getelementptr inbounds nuw %struct.AVFrame, ptr %212, i32 0, i32 9
  %214 = load i64, ptr %213, align 8, !tbaa !49
  call void (ptr, i32, ptr, ...) @av_log(ptr noundef %210, i32 noundef 48, ptr noundef @.str.4, i64 noundef %211, i64 noundef %214)
  %215 = load ptr, ptr %8, align 8, !tbaa !35
  %216 = load ptr, ptr %5, align 8, !tbaa !37
  %217 = call i32 @ff_filter_frame(ptr noundef %215, ptr noundef %216)
  store i32 %217, ptr %3, align 4
  store i32 1, ptr %13, align 4
  br label %218

218:                                              ; preds = %209, %33
  call void @llvm.lifetime.end.p0(i64 8, ptr %12) #7
  call void @llvm.lifetime.end.p0(i64 8, ptr %11) #7
  call void @llvm.lifetime.end.p0(i64 8, ptr %10) #7
  call void @llvm.lifetime.end.p0(i64 8, ptr %9) #7
  call void @llvm.lifetime.end.p0(i64 8, ptr %8) #7
  call void @llvm.lifetime.end.p0(i64 8, ptr %7) #7
  call void @llvm.lifetime.end.p0(i64 4, ptr %6) #7
  %219 = load i32, ptr %3, align 4
  ret i32 %219
}