; Function Attrs: nounwind uwtable
define internal i32 @filter_frame(ptr noundef readonly captures(none) %0, ptr noundef %1) #1 {
  %3 = getelementptr inbounds nuw i8, ptr %0, i64 16
  %4 = load ptr, ptr %3, align 8, !tbaa !31
  %5 = getelementptr inbounds nuw i8, ptr %4, i64 56
  %6 = load ptr, ptr %5, align 8, !tbaa !40
  %7 = load ptr, ptr %6, align 8, !tbaa !41
  %8 = getelementptr inbounds nuw i8, ptr %4, i64 72
  %9 = load ptr, ptr %8, align 8, !tbaa !4
  %10 = getelementptr inbounds nuw i8, ptr %9, i64 8
  %11 = load ptr, ptr %10, align 8, !tbaa !24
  %12 = getelementptr inbounds nuw i8, ptr %1, i64 136
  %13 = load i64, ptr %12, align 8, !tbaa !43
  %14 = icmp eq i64 %13, -9223372036854775808
  br i1 %14, label %106, label %15

15:                                               ; preds = %2
  %16 = getelementptr inbounds nuw i8, ptr %9, i64 40
  %17 = load i32, ptr %16, align 8, !tbaa !30
  %.not = icmp eq i32 %17, 0
  br i1 %.not, label %26, label %18

18:                                               ; preds = %15
  %19 = add nsw i32 %17, -1
  store i32 %19, ptr %16, align 8, !tbaa !30
  %20 = shl nsw i64 %13, 1
  %21 = getelementptr inbounds nuw i8, ptr %9, i64 44
  %22 = load i32, ptr %21, align 4, !tbaa !20
  %23 = sext i32 %22 to i64
  %24 = mul nsw i64 %20, %23
  %25 = getelementptr inbounds nuw i8, ptr %9, i64 32
  store i64 %24, ptr %25, align 8, !tbaa !25
  %.phi.trans.insert78 = getelementptr inbounds nuw i8, ptr %9, i64 20
  %.pre79 = load i32, ptr %.phi.trans.insert78, align 4, !tbaa !27
  %.phi.trans.insert80 = getelementptr inbounds nuw i8, ptr %9, i64 24
  %.pre81 = load i32, ptr %.phi.trans.insert80, align 8, !tbaa !28
  %.phi.trans.insert82 = getelementptr inbounds nuw i8, ptr %9, i64 28
  %.pre83 = load i32, ptr %.phi.trans.insert82, align 4, !tbaa !29
  %.pre85 = sext i32 %.pre79 to i64
  br label %84

26:                                               ; preds = %15
  %27 = getelementptr inbounds nuw i8, ptr %9, i64 20
  %28 = load i32, ptr %27, align 4, !tbaa !27
  %29 = sext i32 %28 to i64
  %30 = getelementptr inbounds i64, ptr %11, i64 %29
  %31 = load i64, ptr %30, align 8, !tbaa !48
  %32 = icmp slt i64 %13, %31
  %33 = getelementptr inbounds nuw i8, ptr %9, i64 44
  %34 = load i32, ptr %33, align 4, !tbaa !20
  %35 = icmp sgt i32 %34, -2
  %or.cond = select i1 %32, i1 %35, i1 false
  br i1 %or.cond, label %.lr.ph, label %.loopexit

.lr.ph:                                           ; preds = %26
  %36 = getelementptr inbounds nuw i8, ptr %9, i64 16
  %37 = load i32, ptr %36, align 8, !tbaa !26
  %38 = sext i32 %37 to i64
  %39 = getelementptr inbounds i64, ptr %11, i64 %38
  %40 = load i64, ptr %39, align 8, !tbaa !48
  %41 = getelementptr inbounds nuw i8, ptr %9, i64 28
  %42 = load i32, ptr %41, align 4, !tbaa !29
  %43 = sext i32 %42 to i64
  %44 = getelementptr inbounds i64, ptr %11, i64 %43
  %45 = load i64, ptr %44, align 8, !tbaa !48
  %46 = add i64 %45, %40
  %47 = getelementptr inbounds nuw i8, ptr %9, i64 24
  %48 = load i32, ptr %47, align 8, !tbaa !28
  %49 = sext i32 %48 to i64
  %50 = getelementptr inbounds i64, ptr %11, i64 %49
  %51 = load i64, ptr %50, align 8, !tbaa !48
  %.neg68 = add i64 %51, %13
  %.reass = sub i64 %.neg68, %46
  %52 = add i32 %34, 2
  %wide.trip.count = zext i32 %52 to i64
  br label %53

53:                                               ; preds = %.lr.ph, %53
  %indvars.iv = phi i64 [ 0, %.lr.ph ], [ %indvars.iv.next, %53 ]
  %54 = getelementptr inbounds nuw i64, ptr %11, i64 %indvars.iv
  %55 = load i64, ptr %54, align 8, !tbaa !48
  %56 = add nsw i64 %.reass, %55
  store i64 %56, ptr %54, align 8, !tbaa !48
  %indvars.iv.next = add nuw nsw i64 %indvars.iv, 1
  %exitcond = icmp eq i64 %indvars.iv.next, %wide.trip.count
  br i1 %exitcond, label %.loopexit, label %53, !llvm.loop !49

.loopexit:                                        ; preds = %53, %26
  %57 = add nsw i32 %34, -1
  %58 = sext i32 %57 to i64
  %59 = getelementptr inbounds nuw i8, ptr %9, i64 24
  %60 = load i32, ptr %59, align 8, !tbaa !28
  %61 = sext i32 %60 to i64
  %62 = getelementptr inbounds i64, ptr %11, i64 %61
  %63 = load i64, ptr %62, align 8, !tbaa !48
  %64 = getelementptr inbounds nuw i8, ptr %9, i64 16
  %65 = load i32, ptr %64, align 8, !tbaa !26
  %66 = sext i32 %65 to i64
  %67 = getelementptr inbounds i64, ptr %11, i64 %66
  %68 = load i64, ptr %67, align 8, !tbaa !48
  %69 = sub nsw i64 %63, %68
  %70 = mul nsw i64 %69, %58
  %71 = add nsw i32 %34, 1
  %72 = sext i32 %71 to i64
  %73 = getelementptr inbounds nuw i8, ptr %9, i64 28
  %74 = load i32, ptr %73, align 4, !tbaa !29
  %75 = sext i32 %74 to i64
  %76 = getelementptr inbounds i64, ptr %11, i64 %75
  %77 = load i64, ptr %76, align 8, !tbaa !48
  %78 = sub nsw i64 %13, %77
  %79 = mul nsw i64 %78, %72
  %80 = getelementptr inbounds nuw i8, ptr %9, i64 32
  %81 = load i64, ptr %80, align 8, !tbaa !25
  %82 = add i64 %81, %70
  %83 = add i64 %82, %79
  store i64 %83, ptr %80, align 8, !tbaa !25
  br label %84

84:                                               ; preds = %.loopexit, %18
  %.pre-phi = phi i64 [ %29, %.loopexit ], [ %.pre85, %18 ]
  %85 = phi i32 [ %34, %.loopexit ], [ %22, %18 ]
  %86 = phi i32 [ %74, %.loopexit ], [ %.pre83, %18 ]
  %87 = phi i32 [ %60, %.loopexit ], [ %.pre81, %18 ]
  %88 = phi i32 [ %28, %.loopexit ], [ %.pre79, %18 ]
  %89 = getelementptr inbounds nuw i8, ptr %9, i64 20
  %90 = getelementptr inbounds i64, ptr %11, i64 %.pre-phi
  store i64 %13, ptr %90, align 8, !tbaa !48
  %91 = getelementptr inbounds nuw i8, ptr %9, i64 16
  store i32 %88, ptr %91, align 8, !tbaa !26
  %92 = getelementptr inbounds nuw i8, ptr %9, i64 24
  store i32 %87, ptr %89, align 4, !tbaa !27
  %93 = getelementptr inbounds nuw i8, ptr %9, i64 28
  store i32 %86, ptr %92, align 8, !tbaa !28
  %94 = add nsw i32 %86, 1
  %95 = getelementptr inbounds nuw i8, ptr %9, i64 44
  %96 = add nsw i32 %85, 2
  %97 = srem i32 %94, %96
  store i32 %97, ptr %93, align 4, !tbaa !29
  %98 = getelementptr inbounds nuw i8, ptr %9, i64 32
  %99 = load i64, ptr %98, align 8, !tbaa !25
  store i64 %99, ptr %12, align 8, !tbaa !43
  %100 = icmp sgt i32 %85, -2
  br i1 %100, label %.lr.ph71, label %._crit_edge

.lr.ph71:                                         ; preds = %84, %.lr.ph71
  %indvars.iv75 = phi i64 [ %indvars.iv.next76, %.lr.ph71 ], [ 0, %84 ]
  %101 = getelementptr inbounds nuw i64, ptr %11, i64 %indvars.iv75
  %102 = load i64, ptr %101, align 8, !tbaa !48
  tail call void (ptr, i32, ptr, ...) @av_log(ptr noundef nonnull %4, i32 noundef 48, ptr noundef nonnull @.str.3, i64 noundef %102) #4
  %indvars.iv.next76 = add nuw nsw i64 %indvars.iv75, 1
  %103 = load i32, ptr %95, align 4, !tbaa !20
  %104 = sext i32 %103 to i64
  %.not73 = icmp sgt i64 %indvars.iv75, %104
  br i1 %.not73, label %._crit_edge.loopexit, label %.lr.ph71, !llvm.loop !51

._crit_edge.loopexit:                             ; preds = %.lr.ph71
  %.pre84 = load i64, ptr %12, align 8, !tbaa !43
  br label %._crit_edge

._crit_edge:                                      ; preds = %._crit_edge.loopexit, %84
  %105 = phi i64 [ %.pre84, %._crit_edge.loopexit ], [ %99, %84 ]
  tail call void (ptr, i32, ptr, ...) @av_log(ptr noundef nonnull %4, i32 noundef 48, ptr noundef nonnull @.str.4, i64 noundef %13, i64 noundef %105) #4
  br label %106

106:                                              ; preds = %2, %._crit_edge
  %107 = tail call i32 @ff_filter_frame(ptr noundef %7, ptr noundef nonnull %1) #4
  ret i32 %107
}